target datalayout = "e-m:e-p270:32:32-p271:32:32-p272:64:64-i64:64-i128:128-f80:128-n8:16:32:64-S128"
target triple = "x86_64-pc-linux-gnu"

%struct.mbedtls_ssl_tls13_labels_struct = type { [8 x i8], [10 x i8], [11 x i8], [8 x i8], [3 x i8], [2 x i8], [12 x i8], [12 x i8], [11 x i8], [12 x i8], [12 x i8], [11 x i8], [12 x i8], [10 x i8], [10 x i8], [10 x i8], [10 x i8], [7 x i8], [33 x i8], [33 x i8] }
%struct.mbedtls_error_pair_t = type { i16, i16 }
%struct.mbedtls_ssl_tls13_handshake_secrets = type { [64 x i8], [64 x i8] }

@psa_to_ssl_errors = external constant [7 x %struct.mbedtls_error_pair_t], align 16

; Function Attrs: nounwind uwtable
define internal i32 @local_err_translation(i32 noundef %0) #0 {
  %2 = alloca i32, align 4
  store i32 %0, ptr %2, align 4, !tbaa !3
  %3 = load i32, ptr %2, align 4, !tbaa !3
  %4 = call i32 @psa_status_to_mbedtls(i32 noundef %3, ptr noundef @psa_to_ssl_errors, i64 noundef 7, ptr noundef @psa_generic_status_to_mbedtls)
  ret i32 %4
}

; Function Attrs: nounwind uwtable
define hidden i32 @mbedtls_ssl_tls13_derive_secret(i32 noundef %0, ptr noundef %1, i64 noundef %2, ptr noundef %3, i64 noundef %4, ptr noundef %5, i64 noundef %6, i32 noundef %7, ptr noundef %8, i64 noundef %9) #0 {
  %11 = alloca i32, align 4
  %12 = alloca i32, align 4
  %13 = alloca ptr, align 8
  %14 = alloca i64, align 8
  %15 = alloca ptr, align 8
  %16 = alloca i64, align 8
  %17 = alloca ptr, align 8
  %18 = alloca i64, align 8
  %19 = alloca i32, align 4
  %20 = alloca ptr, align 8
  %21 = alloca i64, align 8
  %22 = alloca i32, align 4
  %23 = alloca [64 x i8], align 16
  %24 = alloca i32, align 4
  %25 = alloca i32, align 4
  store i32 %0, ptr %12, align 4, !tbaa !3
  store ptr %1, ptr %13, align 8, !tbaa !7
  store i64 %2, ptr %14, align 8, !tbaa !10
  store ptr %3, ptr %15, align 8, !tbaa !7
  store i64 %4, ptr %16, align 8, !tbaa !10
  store ptr %5, ptr %17, align 8, !tbaa !7
  store i64 %6, ptr %18, align 8, !tbaa !10
  store i32 %7, ptr %19, align 4, !tbaa !3
  store ptr %8, ptr %20, align 8, !tbaa !7
  store i64 %9, ptr %21, align 8, !tbaa !10
  call void @llvm.lifetime.start.p0(i64 4, ptr %22) #8
  call void @llvm.lifetime.start.p0(i64 64, ptr %23) #8
  %26 = load i32, ptr %19, align 4, !tbaa !3
  %27 = icmp eq i32 %26, 0
  br i1 %27, label %28, label %146

28:                                               ; preds = %10
  call void @llvm.lifetime.start.p0(i64 4, ptr %24) #8
  store i32 -151, ptr %24, align 4, !tbaa !3
  %29 = load i32, ptr %12, align 4, !tbaa !3
  %30 = load ptr, ptr %17, align 8, !tbaa !7
  %31 = load i64, ptr %18, align 8, !tbaa !10
  %32 = getelementptr inbounds [64 x i8], ptr %23, i64 0, i64 0
  %33 = load i32, ptr %12, align 4, !tbaa !3
  %34 = and i32 %33, 255
  %35 = or i32 33554432, %34
  %36 = icmp eq i32 %35, 33554435
  br i1 %36, label %37, label %38

37:                                               ; preds = %28
  br label %132

38:                                               ; preds = %28
  %39 = load i32, ptr %12, align 4, !tbaa !3
  %40 = and i32 %39, 255
  %41 = or i32 33554432, %40
  %42 = icmp eq i32 %41, 33554436
  br i1 %42, label %43, label %44

43:                                               ; preds = %38
  br label %130

44:                                               ; preds = %38
  %45 = load i32, ptr %12, align 4, !tbaa !3
  %46 = and i32 %45, 255
  %47 = or i32 33554432, %46
  %48 = icmp eq i32 %47, 33554437
  br i1 %48, label %49, label %50

49:                                               ; preds = %44
  br label %128

50:                                               ; preds = %44
  %51 = load i32, ptr %12, align 4, !tbaa !3
  %52 = and i32 %51, 255
  %53 = or i32 33554432, %52
  %54 = icmp eq i32 %53, 33554440
  br i1 %54, label %55, label %56

55:                                               ; preds = %50
  br label %126

56:                                               ; preds = %50
  %57 = load i32, ptr %12, align 4, !tbaa !3
  %58 = and i32 %57, 255
  %59 = or i32 33554432, %58
  %60 = icmp eq i32 %59, 33554441
  br i1 %60, label %61, label %62

61:                                               ; preds = %56
  br label %124

62:                                               ; preds = %56
  %63 = load i32, ptr %12, align 4, !tbaa !3
  %64 = and i32 %63, 255
  %65 = or i32 33554432, %64
  %66 = icmp eq i32 %65, 33554442
  br i1 %66, label %67, label %68

67:                                               ; preds = %62
  br label %122

68:                                               ; preds = %62
  %69 = load i32, ptr %12, align 4, !tbaa !3
  %70 = and i32 %69, 255
  %71 = or i32 33554432, %70
  %72 = icmp eq i32 %71, 33554443
  br i1 %72, label %73, label %74

73:                                               ; preds = %68
  br label %120

74:                                               ; preds = %68
  %75 = load i32, ptr %12, align 4, !tbaa !3
  %76 = and i32 %75, 255
  %77 = or i32 33554432, %76
  %78 = icmp eq i32 %77, 33554444
  br i1 %78, label %79, label %80

79:                                               ; preds = %74
  br label %118

80:                                               ; preds = %74
  %81 = load i32, ptr %12, align 4, !tbaa !3
  %82 = and i32 %81, 255
  %83 = or i32 33554432, %82
  %84 = icmp eq i32 %83, 33554445
  br i1 %84, label %85, label %86

85:                                               ; preds = %80
  br label %116

86:                                               ; preds = %80
  %87 = load i32, ptr %12, align 4, !tbaa !3
  %88 = and i32 %87, 255
  %89 = or i32 33554432, %88
  %90 = icmp eq i32 %89, 33554448
  br i1 %90, label %91, label %92

91:                                               ; preds = %86
  br label %114

92:                                               ; preds = %86
  %93 = load i32, ptr %12, align 4, !tbaa !3
  %94 = and i32 %93, 255
  %95 = or i32 33554432, %94
  %96 = icmp eq i32 %95, 33554449
  br i1 %96, label %97, label %98

97:                                               ; preds = %92
  br label %112

98:                                               ; preds = %92
  %99 = load i32, ptr %12, align 4, !tbaa !3
  %100 = and i32 %99, 255
  %101 = or i32 33554432, %100
  %102 = icmp eq i32 %101, 33554450
  br i1 %102, label %103, label %104

103:                                              ; preds = %98
  br label %110

104:                                              ; preds = %98
  %105 = load i32, ptr %12, align 4, !tbaa !3
  %106 = and i32 %105, 255
  %107 = or i32 33554432, %106
  %108 = icmp eq i32 %107, 33554451
  %109 = select i1 %108, i32 64, i32 0
  br label %110

110:                                              ; preds = %104, %103
  %111 = phi i32 [ 48, %103 ], [ %109, %104 ]
  br label %112

112:                                              ; preds = %110, %97
  %113 = phi i32 [ 32, %97 ], [ %111, %110 ]
  br label %114

114:                                              ; preds = %112, %91
  %115 = phi i32 [ 28, %91 ], [ %113, %112 ]
  br label %116

116:                                              ; preds = %114, %85
  %117 = phi i32 [ 32, %85 ], [ %115, %114 ]
  br label %118

118:                                              ; preds = %116, %79
  %119 = phi i32 [ 28, %79 ], [ %117, %116 ]
  br label %120

120:                                              ; preds = %118, %73
  %121 = phi i32 [ 64, %73 ], [ %119, %118 ]
  br label %122

122:                                              ; preds = %120, %67
  %123 = phi i32 [ 48, %67 ], [ %121, %120 ]
  br label %124

124:                                              ; preds = %122, %61
  %125 = phi i32 [ 32, %61 ], [ %123, %122 ]
  br label %126

126:                                              ; preds = %124, %55
  %127 = phi i32 [ 28, %55 ], [ %125, %124 ]
  br label %128

128:                                              ; preds = %126, %49
  %129 = phi i32 [ 20, %49 ], [ %127, %126 ]
  br label %130

130:                                              ; preds = %128, %43
  %131 = phi i32 [ 20, %43 ], [ %129, %128 ]
  br label %132

132:                                              ; preds = %130, %37
  %133 = phi i32 [ 16, %37 ], [ %131, %130 ]
  %134 = zext i32 %133 to i64
  %135 = call i32 @psa_hash_compute(i32 noundef %29, ptr noundef %30, i64 noundef %31, ptr noundef %32, i64 noundef %134, ptr noundef %18)
  store i32 %135, ptr %24, align 4, !tbaa !3
  %136 = load i32, ptr %24, align 4, !tbaa !3
  %137 = icmp ne i32 %136, 0
  br i1 %137, label %138, label %142

138:                                              ; preds = %132
  %139 = load i32, ptr %24, align 4, !tbaa !3
  %140 = call i32 @local_err_translation(i32 noundef %139)
  store i32 %140, ptr %22, align 4, !tbaa !3
  %141 = load i32, ptr %22, align 4, !tbaa !3
  store i32 %141, ptr %11, align 4
  store i32 1, ptr %25, align 4
  br label %143

142:                                              ; preds = %132
  store i32 0, ptr %25, align 4
  br label %143

143:                                              ; preds = %142, %138
  call void @llvm.lifetime.end.p0(i64 4, ptr %24) #8
  %144 = load i32, ptr %25, align 4
  switch i32 %144, label %165 [
    i32 0, label %145
  ]

145:                                              ; preds = %143
  br label %154

146:                                              ; preds = %10
  %147 = load i64, ptr %18, align 8, !tbaa !10
  %148 = icmp ugt i64 %147, 64
  br i1 %148, label %149, label %150

149:                                              ; preds = %146
  store i32 -27648, ptr %11, align 4
  store i32 1, ptr %25, align 4
  br label %165

150:                                              ; preds = %146
  %151 = getelementptr inbounds [64 x i8], ptr %23, i64 0, i64 0
  %152 = load ptr, ptr %17, align 8, !tbaa !7
  %153 = load i64, ptr %18, align 8, !tbaa !10
  call void @llvm.memcpy.p0.p0.i64(ptr align 16 %151, ptr align 1 %152, i64 %153, i1 false)
  br label %154

154:                                              ; preds = %150, %145
  %155 = load i32, ptr %12, align 4, !tbaa !3
  %156 = load ptr, ptr %13, align 8, !tbaa !7
  %157 = load i64, ptr %14, align 8, !tbaa !10
  %158 = load ptr, ptr %15, align 8, !tbaa !7
  %159 = load i64, ptr %16, align 8, !tbaa !10
  %160 = getelementptr inbounds [64 x i8], ptr %23, i64 0, i64 0
  %161 = load i64, ptr %18, align 8, !tbaa !10
  %162 = load ptr, ptr %20, align 8, !tbaa !7
  %163 = load i64, ptr %21, align 8, !tbaa !10
  %164 = call i32 @mbedtls_ssl_tls13_hkdf_expand_label(i32 noundef %155, ptr noundef %156, i64 noundef %157, ptr noundef %158, i64 noundef %159, ptr noundef %160, i64 noundef %161, ptr noundef %162, i64 noundef %163)
  store i32 %164, ptr %11, align 4
  store i32 1, ptr %25, align 4
  br label %165

165:                                              ; preds = %154, %149, %143
  call void @llvm.lifetime.end.p0(i64 64, ptr %23) #8
  call void @llvm.lifetime.end.p0(i64 4, ptr %22) #8
  %166 = load i32, ptr %11, align 4
  ret i32 %166
}

; Function Attrs: nounwind uwtable
define hidden i32 @mbedtls_ssl_tls13_derive_handshake_secrets(i32 noundef %0, ptr noundef %1, ptr noundef %2, i64 noundef %3, ptr noundef %4) #0 {
  %6 = alloca i32, align 4
  %7 = alloca i32, align 4
  %8 = alloca ptr, align 8
  %9 = alloca ptr, align 8
  %10 = alloca i64, align 8
  %11 = alloca ptr, align 8
  %12 = alloca i32, align 4
  %13 = alloca i64, align 8
  %14 = alloca i32, align 4
  store i32 %0, ptr %7, align 4, !tbaa !3
  store ptr %1, ptr %8, align 8, !tbaa !7
  store ptr %2, ptr %9, align 8, !tbaa !7
  store i64 %3, ptr %10, align 8, !tbaa !10
  store ptr %4, ptr %11, align 8, !tbaa !20
  call void @llvm.lifetime.start.p0(i64 4, ptr %12) #8
  call void @llvm.lifetime.start.p0(i64 8, ptr %13) #8
  %15 = load i32, ptr %7, align 4, !tbaa !3
  %16 = and i32 %15, 255
  %17 = or i32 33554432, %16
  %18 = icmp eq i32 %17, 33554435
  br i1 %18, label %19, label %20

19:                                               ; preds = %5
  br label %114

20:                                               ; preds = %5
  %21 = load i32, ptr %7, align 4, !tbaa !3
  %22 = and i32 %21, 255
  %23 = or i32 33554432, %22
  %24 = icmp eq i32 %23, 33554436
  br i1 %24, label %25, label %26

25:                                               ; preds = %20
  br label %112

26:                                               ; preds = %20
  %27 = load i32, ptr %7, align 4, !tbaa !3
  %28 = and i32 %27, 255
  %29 = or i32 33554432, %28
  %30 = icmp eq i32 %29, 33554437
  br i1 %30, label %31, label %32

31:                                               ; preds = %26
  br label %110

32:                                               ; preds = %26
  %33 = load i32, ptr %7, align 4, !tbaa !3
  %34 = and i32 %33, 255
  %35 = or i32 33554432, %34
  %36 = icmp eq i32 %35, 33554440
  br i1 %36, label %37, label %38

37:                                               ; preds = %32
  br label %108

38:                                               ; preds = %32
  %39 = load i32, ptr %7, align 4, !tbaa !3
  %40 = and i32 %39, 255
  %41 = or i32 33554432, %40
  %42 = icmp eq i32 %41, 33554441
  br i1 %42, label %43, label %44

43:                                               ; preds = %38
  br label %106

44:                                               ; preds = %38
  %45 = load i32, ptr %7, align 4, !tbaa !3
  %46 = and i32 %45, 255
  %47 = or i32 33554432, %46
  %48 = icmp eq i32 %47, 33554442
  br i1 %48, label %49, label %50

49:                                               ; preds = %44
  br label %104

50:                                               ; preds = %44
  %51 = load i32, ptr %7, align 4, !tbaa !3
  %52 = and i32 %51, 255
  %53 = or i32 33554432, %52
  %54 = icmp eq i32 %53, 33554443
  br i1 %54, label %55, label %56

55:                                               ; preds = %50
  br label %102

56:                                               ; preds = %50
  %57 = load i32, ptr %7, align 4, !tbaa !3
  %58 = and i32 %57, 255
  %59 = or i32 33554432, %58
  %60 = icmp eq i32 %59, 33554444
  br i1 %60, label %61, label %62

61:                                               ; preds = %56
  br label %100

62:                                               ; preds = %56
  %63 = load i32, ptr %7, align 4, !tbaa !3
  %64 = and i32 %63, 255
  %65 = or i32 33554432, %64
  %66 = icmp eq i32 %65, 33554445
  br i1 %66, label %67, label %68

67:                                               ; preds = %62
  br label %98

68:                                               ; preds = %62
  %69 = load i32, ptr %7, align 4, !tbaa !3
  %70 = and i32 %69, 255
  %71 = or i32 33554432, %70
  %72 = icmp eq i32 %71, 33554448
  br i1 %72, label %73, label %74

73:                                               ; preds = %68
  br label %96

74:                                               ; preds = %68
  %75 = load i32, ptr %7, align 4, !tbaa !3
  %76 = and i32 %75, 255
  %77 = or i32 33554432, %76
  %78 = icmp eq i32 %77, 33554449
  br i1 %78, label %79, label %80

79:                                               ; preds = %74
  br label %94

80:                                               ; preds = %74
  %81 = load i32, ptr %7, align 4, !tbaa !3
  %82 = and i32 %81, 255
  %83 = or i32 33554432, %82
  %84 = icmp eq i32 %83, 33554450
  br i1 %84, label %85, label %86

85:                                               ; preds = %80
  br label %92

86:                                               ; preds = %80
  %87 = load i32, ptr %7, align 4, !tbaa !3
  %88 = and i32 %87, 255
  %89 = or i32 33554432, %88
  %90 = icmp eq i32 %89, 33554451
  %91 = select i1 %90, i32 64, i32 0
  br label %92

92:                                               ; preds = %86, %85
  %93 = phi i32 [ 48, %85 ], [ %91, %86 ]
  br label %94

94:                                               ; preds = %92, %79
  %95 = phi i32 [ 32, %79 ], [ %93, %92 ]
  br label %96

96:                                               ; preds = %94, %73
  %97 = phi i32 [ 28, %73 ], [ %95, %94 ]
  br label %98

98:                                               ; preds = %96, %67
  %99 = phi i32 [ 32, %67 ], [ %97, %96 ]
  br label %100

100:                                              ; preds = %98, %61
  %101 = phi i32 [ 28, %61 ], [ %99, %98 ]
  br label %102

102:                                              ; preds = %100, %55
  %103 = phi i32 [ 64, %55 ], [ %101, %100 ]
  br label %104

104:                                              ; preds = %102, %49
  %105 = phi i32 [ 48, %49 ], [ %103, %102 ]
  br label %106

106:                                              ; preds = %104, %43
  %107 = phi i32 [ 32, %43 ], [ %105, %104 ]
  br label %108

108:                                              ; preds = %106, %37
  %109 = phi i32 [ 28, %37 ], [ %107, %106 ]
  br label %110

110:                                              ; preds = %108, %31
  %111 = phi i32 [ 20, %31 ], [ %109, %108 ]
  br label %112

112:                                              ; preds = %110, %25
  %113 = phi i32 [ 20, %25 ], [ %111, %110 ]
  br label %114

114:                                              ; preds = %112, %19
  %115 = phi i32 [ 16, %19 ], [ %113, %112 ]
  %116 = zext i32 %115 to i64
  store i64 %116, ptr %13, align 8, !tbaa !10
  %117 = load i32, ptr %7, align 4, !tbaa !3
  %118 = and i32 %117, 2130706432
  %119 = icmp eq i32 %118, 33554432
  br i1 %119, label %121, label %120

120:                                              ; preds = %114
  store i32 -27648, ptr %6, align 4
  store i32 1, ptr %14, align 4
  br label %152

121:                                              ; preds = %114
  %122 = load i32, ptr %7, align 4, !tbaa !3
  %123 = load ptr, ptr %8, align 8, !tbaa !7
  %124 = load i64, ptr %13, align 8, !tbaa !10
  %125 = load ptr, ptr %9, align 8, !tbaa !7
  %126 = load i64, ptr %10, align 8, !tbaa !10
  %127 = load ptr, ptr %11, align 8, !tbaa !20
  %128 = getelementptr inbounds nuw %struct.mbedtls_ssl_tls13_handshake_secrets, ptr %127, i32 0, i32 0
  %129 = getelementptr inbounds [64 x i8], ptr %128, i64 0, i64 0
  %130 = load i64, ptr %13, align 8, !tbaa !10
  %131 = call i32 @mbedtls_ssl_tls13_derive_secret(i32 noundef %122, ptr noundef %123, i64 noundef %124, ptr noundef getelementptr inbounds nuw (%struct.mbedtls_ssl_tls13_labels_struct, ptr @mbedtls_ssl_tls13_labels, i32 0, i32 6), i64 noundef 12, ptr noundef %125, i64 noundef %126, i32 noundef 1, ptr noundef %129, i64 noundef %130)
  store i32 %131, ptr %12, align 4, !tbaa !3
  %132 = load i32, ptr %12, align 4, !tbaa !3
  %133 = icmp ne i32 %132, 0
  br i1 %133, label %134, label %136

134:                                              ; preds = %121
  %135 = load i32, ptr %12, align 4, !tbaa !3
  store i32 %135, ptr %6, align 4
  store i32 1, ptr %14, align 4
  br label %152

136:                                              ; preds = %121
  %137 = load i32, ptr %7, align 4, !tbaa !3
  %138 = load ptr, ptr %8, align 8, !tbaa !7
  %139 = load i64, ptr %13, align 8, !tbaa !10
  %140 = load ptr, ptr %9, align 8, !tbaa !7
  %141 = load i64, ptr %10, align 8, !tbaa !10
  %142 = load ptr, ptr %11, align 8, !tbaa !20
  %143 = getelementptr inbounds nuw %struct.mbedtls_ssl_tls13_handshake_secrets, ptr %142, i32 0, i32 1
  %144 = getelementptr inbounds [64 x i8], ptr %143, i64 0, i64 0
  %145 = load i64, ptr %13, align 8, !tbaa !10
  %146 = call i32 @mbedtls_ssl_tls13_derive_secret(i32 noundef %137, ptr noundef %138, i64 noundef %139, ptr noundef getelementptr inbounds nuw (%struct.mbedtls_ssl_tls13_labels_struct, ptr @mbedtls_ssl_tls13_labels, i32 0, i32 9), i64 noundef 12, ptr noundef %140, i64 noundef %141, i32 noundef 1, ptr noundef %144, i64 noundef %145)
  store i32 %146, ptr %12, align 4, !tbaa !3
  %147 = load i32, ptr %12, align 4, !tbaa !3
  %148 = icmp ne i32 %147, 0
  br i1 %148, label %149, label %151

149:                                              ; preds = %136
  %150 = load i32, ptr %12, align 4, !tbaa !3
  store i32 %150, ptr %6, align 4
  store i32 1, ptr %14, align 4
  br label %152

151:                                              ; preds = %136
  store i32 0, ptr %6, align 4
  store i32 1, ptr %14, align 4
  br label %152

152:                                              ; preds = %151, %149, %134, %120
  call void @llvm.lifetime.end.p0(i64 8, ptr %13) #8
  call void @llvm.lifetime.end.p0(i64 4, ptr %12) #8
  %153 = load i32, ptr %6, align 4
  ret i32 %153
}