; Function Attrs: nounwind uwtable
define hidden i32 @mbedtls_ssl_tls13_derive_handshake_secrets(i32 noundef %0, ptr noundef %1, ptr noundef readonly captures(none) %2, i64 noundef %3, ptr noundef %4) local_unnamed_addr #0 {
  %6 = alloca [64 x i8], align 16
  %7 = alloca [64 x i8], align 16
  %trunc = trunc i32 %0 to i8
  %switch.tableidx = add i8 %trunc, -3
  %8 = icmp ult i8 %switch.tableidx, 16
  br i1 %8, label %switch.hole_check, label %9

9:                                                ; preds = %switch.hole_check, %5
  %10 = and i32 %0, 255
  %11 = icmp eq i32 %10, 19
  %12 = select i1 %11, i64 64, i64 0
  br label %14

switch.hole_check:                                ; preds = %5
  %switch.maskindex = zext nneg i8 %switch.tableidx to i16
  %switch.shifted = lshr i16 -6169, %switch.maskindex
  %switch.lobit = trunc i16 %switch.shifted to i1
  br i1 %switch.lobit, label %switch.lookup, label %9

switch.lookup:                                    ; preds = %switch.hole_check
  %13 = zext nneg i8 %switch.tableidx to i64
  %switch.gep = getelementptr inbounds nuw [16 x i64], ptr @switch.table.mbedtls_ssl_tls13_compute_application_transform.13, i64 0, i64 %13
  %switch.load = load i64, ptr %switch.gep, align 8
  br label %14

14:                                               ; preds = %switch.lookup, %9
  %15 = phi i64 [ %12, %9 ], [ %switch.load, %switch.lookup ]
  %16 = and i32 %0, 2130706432
  %17 = icmp eq i32 %16, 33554432
  br i1 %17, label %18, label %23

18:                                               ; preds = %14
  call void @llvm.lifetime.start.p0(i64 64, ptr nonnull %7) #8
  %19 = icmp ugt i64 %3, 64
  br i1 %19, label %mbedtls_ssl_tls13_derive_secret.exit.thread, label %mbedtls_ssl_tls13_derive_secret.exit

mbedtls_ssl_tls13_derive_secret.exit.thread:      ; preds = %18
  call void @llvm.lifetime.end.p0(i64 64, ptr nonnull %7) #8
  br label %23

mbedtls_ssl_tls13_derive_secret.exit:             ; preds = %18
  call void @llvm.memcpy.p0.p0.i64(ptr nonnull align 16 %7, ptr align 1 %2, i64 %3, i1 false)
  %20 = call i32 @mbedtls_ssl_tls13_hkdf_expand_label(i32 noundef %0, ptr noundef %1, i64 noundef %15, ptr noundef nonnull readonly getelementptr inbounds nuw (i8, ptr @mbedtls_ssl_tls13_labels, i64 42), i64 noundef 12, ptr noundef nonnull %7, i64 noundef %3, ptr noundef %4, i64 noundef %15)
  call void @llvm.lifetime.end.p0(i64 64, ptr nonnull %7) #8
  %.not = icmp eq i32 %20, 0
  br i1 %.not, label %mbedtls_ssl_tls13_derive_secret.exit47, label %23

mbedtls_ssl_tls13_derive_secret.exit47:           ; preds = %mbedtls_ssl_tls13_derive_secret.exit
  %21 = getelementptr inbounds nuw i8, ptr %4, i64 64
  call void @llvm.lifetime.start.p0(i64 64, ptr nonnull %6) #8
  call void @llvm.memcpy.p0.p0.i64(ptr nonnull align 16 %6, ptr align 1 %2, i64 %3, i1 false)
  %22 = call i32 @mbedtls_ssl_tls13_hkdf_expand_label(i32 noundef %0, ptr noundef %1, i64 noundef %15, ptr noundef nonnull readonly getelementptr inbounds nuw (i8, ptr @mbedtls_ssl_tls13_labels, i64 77), i64 noundef 12, ptr noundef nonnull %6, i64 noundef %3, ptr noundef nonnull %21, i64 noundef %15)
  call void @llvm.lifetime.end.p0(i64 64, ptr nonnull %6) #8
  br label %23

23:                                               ; preds = %mbedtls_ssl_tls13_derive_secret.exit.thread, %mbedtls_ssl_tls13_derive_secret.exit47, %mbedtls_ssl_tls13_derive_secret.exit, %14
  %.0 = phi i32 [ -27648, %14 ], [ %20, %mbedtls_ssl_tls13_derive_secret.exit ], [ %22, %mbedtls_ssl_tls13_derive_secret.exit47 ], [ -27648, %mbedtls_ssl_tls13_derive_secret.exit.thread ]
  ret i32 %.0
}